target datalayout = "e-m:e-p270:32:32-p271:32:32-p272:64:64-i64:64-i128:128-f80:128-n8:16:32:64-S128"
target triple = "x86_64-pc-linux-gnu"

%"class.cvc5::internal::TypeNode" = type { ptr }
%"class.cvc5::internal::Cardinality" = type { %"class.cvc5::internal::Integer" }
%"class.cvc5::internal::Integer" = type { %class.__gmp_expr }
%class.__gmp_expr = type { [1 x %struct.__mpz_struct] }
%struct.__mpz_struct = type { i32, i32, ptr }
%"struct.cvc5::internal::BitVectorSize" = type { i32 }

; Function Attrs: inlinehint mustprogress uwtable
define available_externally void @__gmpz_neg(ptr noundef %0, ptr noundef %1) #5 {
  %3 = alloca ptr, align 8
  %4 = alloca ptr, align 8
  store ptr %0, ptr %3, align 8, !tbaa !78
  store ptr %1, ptr %4, align 8, !tbaa !78
  %5 = load ptr, ptr %3, align 8, !tbaa !78
  %6 = load ptr, ptr %4, align 8, !tbaa !78
  %7 = icmp ne ptr %5, %6
  br i1 %7, label %8, label %11

8:                                                ; preds = %2
  %9 = load ptr, ptr %3, align 8, !tbaa !78
  %10 = load ptr, ptr %4, align 8, !tbaa !78
  call void @__gmpz_set(ptr noundef %9, ptr noundef %10)
  br label %11

11:                                               ; preds = %8, %2
  %12 = load ptr, ptr %3, align 8, !tbaa !78
  %13 = getelementptr inbounds nuw %struct.__mpz_struct, ptr %12, i32 0, i32 1
  %14 = load i32, ptr %13, align 4, !tbaa !79
  %15 = sub nsw i32 0, %14
  %16 = load ptr, ptr %3, align 8, !tbaa !78
  %17 = getelementptr inbounds nuw %struct.__mpz_struct, ptr %16, i32 0, i32 1
  store i32 %15, ptr %17, align 4, !tbaa !79
  ret void
}

; Function Attrs: mustprogress uwtable
define linkonce_odr hidden void @_ZN10__gmp_exprIA1_12__mpz_structS1_E7init_uiEm(ptr noundef nonnull align 8 dereferenceable(16) %0, i64 noundef %1) #4 comdat align 2 {
  %3 = alloca ptr, align 8
  %4 = alloca i64, align 8
  store ptr %0, ptr %3, align 8, !tbaa !74
  store i64 %1, ptr %4, align 8, !tbaa !76
  %5 = load ptr, ptr %3, align 8
  %6 = load i64, ptr %4, align 8, !tbaa !76
  %7 = icmp eq i64 %6, 0
  %8 = call i1 @llvm.is.constant.i1(i1 %7)
  br i1 %8, label %9, label %15

9:                                                ; preds = %2
  %10 = load i64, ptr %4, align 8, !tbaa !76
  %11 = icmp eq i64 %10, 0
  br i1 %11, label %12, label %15

12:                                               ; preds = %9
  %13 = getelementptr inbounds nuw %class.__gmp_expr, ptr %5, i32 0, i32 0
  %14 = getelementptr inbounds [1 x %struct.__mpz_struct], ptr %13, i64 0, i64 0
  call void @__gmpz_init(ptr noundef %14) #3
  br label %19

15:                                               ; preds = %9, %2
  %16 = getelementptr inbounds nuw %class.__gmp_expr, ptr %5, i32 0, i32 0
  %17 = getelementptr inbounds [1 x %struct.__mpz_struct], ptr %16, i64 0, i64 0
  %18 = load i64, ptr %4, align 8, !tbaa !76
  call void @__gmpz_init_set_ui(ptr noundef %17, i64 noundef %18)
  br label %19

19:                                               ; preds = %15, %12
  ret void
}

; Function Attrs: mustprogress uwtable
define linkonce_odr hidden void @_ZN10__gmp_exprIA1_12__mpz_structS1_E7init_siEl(ptr noundef nonnull align 8 dereferenceable(16) %0, i64 noundef %1) #4 comdat align 2 {
  %3 = alloca ptr, align 8
  %4 = alloca i64, align 8
  store ptr %0, ptr %3, align 8, !tbaa !74
  store i64 %1, ptr %4, align 8, !tbaa !76
  %5 = load ptr, ptr %3, align 8
  %6 = load i64, ptr %4, align 8, !tbaa !76
  %7 = icmp sge i64 %6, 0
  %8 = call i1 @llvm.is.constant.i1(i1 %7)
  br i1 %8, label %9, label %14

9:                                                ; preds = %2
  %10 = load i64, ptr %4, align 8, !tbaa !76
  %11 = icmp sge i64 %10, 0
  br i1 %11, label %12, label %14

12:                                               ; preds = %9
  %13 = load i64, ptr %4, align 8, !tbaa !76
  call void @_ZN10__gmp_exprIA1_12__mpz_structS1_E7init_uiEm(ptr noundef nonnull align 8 dereferenceable(16) %5, i64 noundef %13)
  br label %33

14:                                               ; preds = %9, %2
  %15 = load i64, ptr %4, align 8, !tbaa !76
  %16 = icmp sle i64 %15, 0
  %17 = call i1 @llvm.is.constant.i1(i1 %16)
  br i1 %17, label %18, label %28

18:                                               ; preds = %14
  %19 = load i64, ptr %4, align 8, !tbaa !76
  %20 = icmp sle i64 %19, 0
  br i1 %20, label %21, label %28

21:                                               ; preds = %18
  %22 = load i64, ptr %4, align 8, !tbaa !76
  %23 = sub i64 0, %22
  call void @_ZN10__gmp_exprIA1_12__mpz_structS1_E7init_uiEm(ptr noundef nonnull align 8 dereferenceable(16) %5, i64 noundef %23)
  %24 = getelementptr inbounds nuw %class.__gmp_expr, ptr %5, i32 0, i32 0
  %25 = getelementptr inbounds [1 x %struct.__mpz_struct], ptr %24, i64 0, i64 0
  %26 = getelementptr inbounds nuw %class.__gmp_expr, ptr %5, i32 0, i32 0
  %27 = getelementptr inbounds [1 x %struct.__mpz_struct], ptr %26, i64 0, i64 0
  call void @__gmpz_neg(ptr noundef %25, ptr noundef %27)
  br label %32

28:                                               ; preds = %18, %14
  %29 = getelementptr inbounds nuw %class.__gmp_expr, ptr %5, i32 0, i32 0
  %30 = getelementptr inbounds [1 x %struct.__mpz_struct], ptr %29, i64 0, i64 0
  %31 = load i64, ptr %4, align 8, !tbaa !76
  call void @__gmpz_init_set_si(ptr noundef %30, i64 noundef %31)
  br label %32

32:                                               ; preds = %28, %21
  br label %33

33:                                               ; preds = %32, %12
  ret void
}

; Function Attrs: mustprogress nounwind uwtable
define linkonce_odr hidden void @_ZN10__gmp_exprIA1_12__mpz_structS1_ED2Ev(ptr noundef nonnull align 8 dereferenceable(16) %0) unnamed_addr #8 comdat align 2 personality ptr @__gxx_personality_v0 {
  %2 = alloca ptr, align 8
  store ptr %0, ptr %2, align 8, !tbaa !74
  %3 = load ptr, ptr %2, align 8
  %4 = getelementptr inbounds nuw %class.__gmp_expr, ptr %3, i32 0, i32 0
  %5 = getelementptr inbounds [1 x %struct.__mpz_struct], ptr %4, i64 0, i64 0
  invoke void @__gmpz_clear(ptr noundef %5)
          to label %6 unwind label %7

6:                                                ; preds = %1
  ret void

7:                                                ; preds = %1
  %8 = landingpad { ptr, i32 }
          catch ptr null
  %9 = extractvalue { ptr, i32 } %8, 0
  call void @__clang_call_terminate(ptr %9) #15
  unreachable
}

; Function Attrs: mustprogress uwtable
define linkonce_odr hidden void @_ZN10__gmp_exprIA1_12__mpz_structS1_EC2Ei(ptr noundef nonnull align 8 dereferenceable(16) %0, i32 noundef %1) unnamed_addr #4 comdat align 2 {
  %3 = alloca ptr, align 8
  %4 = alloca i32, align 4
  store ptr %0, ptr %3, align 8, !tbaa !74
  store i32 %1, ptr %4, align 4, !tbaa !21
  %5 = load ptr, ptr %3, align 8
  %6 = load i32, ptr %4, align 4, !tbaa !21
  %7 = sext i32 %6 to i64
  call void @_ZN10__gmp_exprIA1_12__mpz_structS1_E7init_siEl(ptr noundef nonnull align 8 dereferenceable(16) %5, i64 noundef %7)
  ret void
}

; Function Attrs: mustprogress nounwind uwtable
define linkonce_odr hidden void @_ZN4cvc58internal7IntegerD2Ev(ptr noundef nonnull align 8 dereferenceable(16) %0) unnamed_addr #8 comdat align 2 {
  %2 = alloca ptr, align 8
  store ptr %0, ptr %2, align 8, !tbaa !27
  %3 = load ptr, ptr %2, align 8
  %4 = getelementptr inbounds nuw %"class.cvc5::internal::Integer", ptr %3, i32 0, i32 0
  call void @_ZN10__gmp_exprIA1_12__mpz_structS1_ED2Ev(ptr noundef nonnull align 8 dereferenceable(16) %4) #3
  ret void
}

; Function Attrs: mustprogress uwtable
define linkonce_odr hidden void @_ZN4cvc58internal7IntegerC2Ei(ptr noundef nonnull align 8 dereferenceable(16) %0, i32 noundef %1) unnamed_addr #4 comdat align 2 {
  %3 = alloca ptr, align 8
  %4 = alloca i32, align 4
  store ptr %0, ptr %3, align 8, !tbaa !27
  store i32 %1, ptr %4, align 4, !tbaa !21
  %5 = load ptr, ptr %3, align 8
  %6 = getelementptr inbounds nuw %"class.cvc5::internal::Integer", ptr %5, i32 0, i32 0
  %7 = load i32, ptr %4, align 4, !tbaa !21
  call void @_ZN10__gmp_exprIA1_12__mpz_structS1_EC2Ei(ptr noundef nonnull align 8 dereferenceable(16) %6, i32 noundef %7)
  ret void
}

; Function Attrs: mustprogress nounwind uwtable
define linkonce_odr hidden noundef i32 @_ZNK4cvc58internal13BitVectorSizecvjEv(ptr noundef nonnull align 4 dereferenceable(4) %0) #8 comdat align 2 {
  %2 = alloca ptr, align 8
  store ptr %0, ptr %2, align 8, !tbaa !23
  %3 = load ptr, ptr %2, align 8
  %4 = getelementptr inbounds nuw %"struct.cvc5::internal::BitVectorSize", ptr %3, i32 0, i32 0
  %5 = load i32, ptr %4, align 4, !tbaa !25
  ret i32 %5
}

; Function Attrs: inlinehint mustprogress uwtable
define linkonce_odr hidden noundef nonnull align 4 dereferenceable(4) ptr @_ZNK4cvc58internal8TypeNode8getConstINS0_13BitVectorSizeEEERKT_v(ptr noundef nonnull align 8 dereferenceable(8) %0) #5 comdat align 2 {
  %2 = alloca ptr, align 8
  store ptr %0, ptr %2, align 8, !tbaa !3
  %3 = load ptr, ptr %2, align 8
  %4 = getelementptr inbounds nuw %"class.cvc5::internal::TypeNode", ptr %3, i32 0, i32 0
  %5 = load ptr, ptr %4, align 8, !tbaa !18
  %6 = call noundef nonnull align 4 dereferenceable(4) ptr @_ZNK4cvc58internal4expr9NodeValue8getConstINS0_13BitVectorSizeEEERKT_v(ptr noundef nonnull align 8 dereferenceable(24) %5)
  ret ptr %6
}

; Function Attrs: mustprogress uwtable
define hidden void @_ZN4cvc58internal6theory2bv19CardinalityComputer18computeCardinalityENS0_8TypeNodeE(ptr dead_on_unwind noalias writable sret(%"class.cvc5::internal::Cardinality") align 8 %0, ptr noundef %1) #4 align 2 personality ptr @__gxx_personality_v0 {
  %3 = alloca ptr, align 8
  %4 = alloca ptr, align 8
  %5 = alloca i32, align 4
  %6 = alloca i32, align 4
  %7 = alloca %"class.cvc5::internal::Integer", align 8
  %8 = alloca %"class.cvc5::internal::Integer", align 8
  %9 = alloca ptr, align 8
  %10 = alloca i32, align 4
  store ptr %0, ptr %3, align 8
  store ptr %1, ptr %4, align 8, !tbaa !3
  call void @llvm.lifetime.start.p0(i64 4, ptr %5) #3
  %11 = call noundef nonnull align 4 dereferenceable(4) ptr @_ZNK4cvc58internal8TypeNode8getConstINS0_13BitVectorSizeEEERKT_v(ptr noundef nonnull align 8 dereferenceable(8) %1)
  %12 = call noundef i32 @_ZNK4cvc58internal13BitVectorSizecvjEv(ptr noundef nonnull align 4 dereferenceable(4) %11)
  store i32 %12, ptr %5, align 4, !tbaa !21
  %13 = load i32, ptr %5, align 4, !tbaa !21
  %14 = icmp eq i32 %13, 0
  br i1 %14, label %15, label %16

15:                                               ; preds = %2
  call void @_ZN4cvc58internal11CardinalityC1El(ptr noundef nonnull align 8 dereferenceable(16) %0, i64 noundef 0)
  store i32 1, ptr %6, align 4
  br label %29

16:                                               ; preds = %2
  call void @llvm.lifetime.start.p0(i64 16, ptr %7) #3
  call void @llvm.lifetime.start.p0(i64 16, ptr %8) #3
  call void @_ZN4cvc58internal7IntegerC2Ei(ptr noundef nonnull align 8 dereferenceable(16) %8, i32 noundef 2)
  %17 = load i32, ptr %5, align 4, !tbaa !21
  invoke void @_ZNK4cvc58internal7Integer3powEj(ptr dead_on_unwind writable sret(%"class.cvc5::internal::Integer") align 8 %7, ptr noundef nonnull align 8 dereferenceable(16) %8, i32 noundef %17)
          to label %18 unwind label %20

18:                                               ; preds = %16
  invoke void @_ZN4cvc58internal11CardinalityC1ERKNS0_7IntegerE(ptr noundef nonnull align 8 dereferenceable(16) %0, ptr noundef nonnull align 8 dereferenceable(16) %7)
          to label %19 unwind label %24

19:                                               ; preds = %18
  call void @_ZN4cvc58internal7IntegerD2Ev(ptr noundef nonnull align 8 dereferenceable(16) %7) #3
  call void @_ZN4cvc58internal7IntegerD2Ev(ptr noundef nonnull align 8 dereferenceable(16) %8) #3
  call void @llvm.lifetime.end.p0(i64 16, ptr %8) #3
  call void @llvm.lifetime.end.p0(i64 16, ptr %7) #3
  store i32 1, ptr %6, align 4
  br label %29

20:                                               ; preds = %16
  %21 = landingpad { ptr, i32 }
          cleanup
  %22 = extractvalue { ptr, i32 } %21, 0
  store ptr %22, ptr %9, align 8
  %23 = extractvalue { ptr, i32 } %21, 1
  store i32 %23, ptr %10, align 4
  br label %28

24:                                               ; preds = %18
  %25 = landingpad { ptr, i32 }
          cleanup
  %26 = extractvalue { ptr, i32 } %25, 0
  store ptr %26, ptr %9, align 8
  %27 = extractvalue { ptr, i32 } %25, 1
  store i32 %27, ptr %10, align 4
  call void @_ZN4cvc58internal7IntegerD2Ev(ptr noundef nonnull align 8 dereferenceable(16) %7) #3
  br label %28

28:                                               ; preds = %24, %20
  call void @_ZN4cvc58internal7IntegerD2Ev(ptr noundef nonnull align 8 dereferenceable(16) %8) #3
  call void @llvm.lifetime.end.p0(i64 16, ptr %8) #3
  call void @llvm.lifetime.end.p0(i64 16, ptr %7) #3
  call void @llvm.lifetime.end.p0(i64 4, ptr %5) #3
  br label %30

29:                                               ; preds = %19, %15
  call void @llvm.lifetime.end.p0(i64 4, ptr %5) #3
  ret void

30:                                               ; preds = %28
  %31 = load ptr, ptr %9, align 8
  %32 = load i32, ptr %10, align 4
  %33 = insertvalue { ptr, i32 } poison, ptr %31, 0
  %34 = insertvalue { ptr, i32 } %33, i32 %32, 1
  resume { ptr, i32 } %34
}