; Function Attrs: mustprogress uwtable
define hidden void @_ZN4cvc58internal6theory2bv19CardinalityComputer18computeCardinalityENS0_8TypeNodeE(ptr dead_on_unwind noalias writable sret(%"class.cvc5::internal::Cardinality") align 8 %0, ptr noundef readonly captures(none) %1) local_unnamed_addr #3 align 2 personality ptr @__gxx_personality_v0 {
  %3 = alloca %"class.cvc5::internal::Integer", align 8
  %4 = alloca %"class.cvc5::internal::Integer", align 8
  %5 = load ptr, ptr %1, align 8, !tbaa !3
  %6 = tail call noundef nonnull align 4 dereferenceable(4) ptr @_ZNK4cvc58internal4expr9NodeValue8getConstINS0_13BitVectorSizeEEERKT_v(ptr noundef nonnull align 8 dereferenceable(24) %5)
  %7 = load i32, ptr %6, align 4, !tbaa !13
  %8 = icmp eq i32 %7, 0
  br i1 %8, label %9, label %10

9:                                                ; preds = %2
  tail call void @_ZN4cvc58internal11CardinalityC1El(ptr noundef nonnull align 8 dereferenceable(16) %0, i64 noundef 0)
  br label %29

10:                                               ; preds = %2
  call void @llvm.lifetime.start.p0(i64 16, ptr nonnull %3) #13
  call void @llvm.lifetime.start.p0(i64 16, ptr nonnull %4) #13
  call void @__gmpz_init_set_ui(ptr noundef nonnull align 8 dereferenceable(16) %4, i64 noundef 2)
  invoke void @_ZNK4cvc58internal7Integer3powEj(ptr dead_on_unwind nonnull writable sret(%"class.cvc5::internal::Integer") align 8 %3, ptr noundef nonnull align 8 dereferenceable(16) %4, i32 noundef %7)
          to label %11 unwind label %19

11:                                               ; preds = %10
  invoke void @_ZN4cvc58internal11CardinalityC1ERKNS0_7IntegerE(ptr noundef nonnull align 8 dereferenceable(16) %0, ptr noundef nonnull align 8 dereferenceable(16) %3)
          to label %12 unwind label %21

12:                                               ; preds = %11
  invoke void @__gmpz_clear(ptr noundef nonnull align 8 dereferenceable(16) %3)
          to label %_ZN4cvc58internal7IntegerD2Ev.exit unwind label %13

13:                                               ; preds = %12
  %14 = landingpad { ptr, i32 }
          catch ptr null
  %15 = extractvalue { ptr, i32 } %14, 0
  call void @__clang_call_terminate(ptr %15) #14
  unreachable

_ZN4cvc58internal7IntegerD2Ev.exit:               ; preds = %12
  invoke void @__gmpz_clear(ptr noundef nonnull align 8 dereferenceable(16) %4)
          to label %_ZN4cvc58internal7IntegerD2Ev.exit6 unwind label %16

16:                                               ; preds = %_ZN4cvc58internal7IntegerD2Ev.exit
  %17 = landingpad { ptr, i32 }
          catch ptr null
  %18 = extractvalue { ptr, i32 } %17, 0
  call void @__clang_call_terminate(ptr %18) #14
  unreachable

_ZN4cvc58internal7IntegerD2Ev.exit6:              ; preds = %_ZN4cvc58internal7IntegerD2Ev.exit
  call void @llvm.lifetime.end.p0(i64 16, ptr nonnull %4) #13
  call void @llvm.lifetime.end.p0(i64 16, ptr nonnull %3) #13
  br label %29

19:                                               ; preds = %10
  %20 = landingpad { ptr, i32 }
          cleanup
  br label %_ZN4cvc58internal7IntegerD2Ev.exit7

21:                                               ; preds = %11
  %22 = landingpad { ptr, i32 }
          cleanup
  invoke void @__gmpz_clear(ptr noundef nonnull align 8 dereferenceable(16) %3)
          to label %_ZN4cvc58internal7IntegerD2Ev.exit7 unwind label %23

23:                                               ; preds = %21
  %24 = landingpad { ptr, i32 }
          catch ptr null
  %25 = extractvalue { ptr, i32 } %24, 0
  call void @__clang_call_terminate(ptr %25) #14
  unreachable

_ZN4cvc58internal7IntegerD2Ev.exit7:              ; preds = %21, %19
  %.pn = phi { ptr, i32 } [ %20, %19 ], [ %22, %21 ]
  invoke void @__gmpz_clear(ptr noundef nonnull align 8 dereferenceable(16) %4)
          to label %_ZN4cvc58internal7IntegerD2Ev.exit8 unwind label %26

26:                                               ; preds = %_ZN4cvc58internal7IntegerD2Ev.exit7
  %27 = landingpad { ptr, i32 }
          catch ptr null
  %28 = extractvalue { ptr, i32 } %27, 0
  call void @__clang_call_terminate(ptr %28) #14
  unreachable

_ZN4cvc58internal7IntegerD2Ev.exit8:              ; preds = %_ZN4cvc58internal7IntegerD2Ev.exit7
  call void @llvm.lifetime.end.p0(i64 16, ptr nonnull %4) #13
  call void @llvm.lifetime.end.p0(i64 16, ptr nonnull %3) #13
  resume { ptr, i32 } %.pn

29:                                               ; preds = %_ZN4cvc58internal7IntegerD2Ev.exit6, %9
  ret void
}